target datalayout = "e-m:e-p270:32:32-p271:32:32-p272:64:64-i64:64-i128:128-f80:128-n8:16:32:64-S128"
target triple = "x86_64-pc-linux-gnu"

%struct.SwsInternal = type { %struct.SwsContext, ptr, ptr, ptr, ptr, i32, [2 x ptr], i32, i32, ptr, i32, i32, i32, i32, i32, i32, i32, i32, i32, i32, i32, i32, i32, i32, i32, i32, i32, i32, ptr, ptr, %struct.RangeList, [3 x ptr], [2 x [4 x i32]], [2 x [4 x ptr]], i32, double, i32, ptr, ptr, i32, [2 x i32], i32, ptr, ptr, [256 x i32], [256 x i32], [256 x float], i32, i32, ptr, i32, ptr, ptr, ptr, ptr, ptr, ptr, ptr, ptr, i32, i32, i32, i32, i32, i32, ptr, ptr, i32, i32, i32, ptr, [8 x i8], [1280 x i32], [1280 x ptr], [1280 x ptr], [1280 x ptr], [176 x i32], [4 x ptr], i32, i32, i32, [4 x i32], [4 x i32], i32, i32, i32, i32, i32, i32, i32, i32, i32, i32, i64, i64, i64, i64, i64, i64, i64, i64, i64, i64, i64, [1024 x i32], [1024 x i32], i32, i64, i64, i64, i64, i64, [1024 x i32], i64, i64, [8 x i16], [8 x i32], ptr, ptr, i32, ptr, ptr, ptr, ptr, [3 x [4 x i16]], [3 x [4 x i16]], ptr, ptr, ptr, ptr, ptr, ptr, ptr, ptr, ptr, ptr, ptr, ptr, ptr, ptr, ptr, ptr, ptr, ptr, ptr, ptr, i32, i32, i64, i64, i32, ptr, i32, ptr, i32, i32, i32, i32, i32, ptr }
%struct.SwsContext = type { ptr, ptr, i32, [2 x double], i32, i32, i32, i32, i32, i32, i32, i32, i32, i32, i32, i32, i32, i32, i32, i32, i32 }
%struct.RangeList = type { ptr, i32, i32 }

@uyvytoyuv422 = external global ptr, align 8

; Function Attrs: nounwind uwtable
define internal i32 @uyvyToYuv422Wrapper(ptr noundef %0, ptr noundef %1, ptr noundef %2, i32 noundef %3, i32 noundef %4, ptr noundef %5, ptr noundef %6) #0 {
  %8 = alloca ptr, align 8
  %9 = alloca ptr, align 8
  %10 = alloca ptr, align 8
  %11 = alloca i32, align 4
  %12 = alloca i32, align 4
  %13 = alloca ptr, align 8
  %14 = alloca ptr, align 8
  %15 = alloca ptr, align 8
  %16 = alloca ptr, align 8
  %17 = alloca ptr, align 8
  store ptr %0, ptr %8, align 8, !tbaa !13
  store ptr %1, ptr %9, align 8, !tbaa !52
  store ptr %2, ptr %10, align 8, !tbaa !54
  store i32 %3, ptr %11, align 4, !tbaa !9
  store i32 %4, ptr %12, align 4, !tbaa !9
  store ptr %5, ptr %13, align 8, !tbaa !52
  store ptr %6, ptr %14, align 8, !tbaa !54
  call void @llvm.lifetime.start.p0(i64 8, ptr %15) #11
  %18 = load ptr, ptr %13, align 8, !tbaa !52
  %19 = getelementptr inbounds ptr, ptr %18, i64 0
  %20 = load ptr, ptr %19, align 8, !tbaa !4
  %21 = load ptr, ptr %14, align 8, !tbaa !54
  %22 = getelementptr inbounds i32, ptr %21, i64 0
  %23 = load i32, ptr %22, align 4, !tbaa !9
  %24 = load i32, ptr %11, align 4, !tbaa !9
  %25 = mul nsw i32 %23, %24
  %26 = sext i32 %25 to i64
  %27 = getelementptr inbounds i8, ptr %20, i64 %26
  store ptr %27, ptr %15, align 8, !tbaa !4
  call void @llvm.lifetime.start.p0(i64 8, ptr %16) #11
  %28 = load ptr, ptr %13, align 8, !tbaa !52
  %29 = getelementptr inbounds ptr, ptr %28, i64 1
  %30 = load ptr, ptr %29, align 8, !tbaa !4
  %31 = load ptr, ptr %14, align 8, !tbaa !54
  %32 = getelementptr inbounds i32, ptr %31, i64 1
  %33 = load i32, ptr %32, align 4, !tbaa !9
  %34 = load i32, ptr %11, align 4, !tbaa !9
  %35 = mul nsw i32 %33, %34
  %36 = sext i32 %35 to i64
  %37 = getelementptr inbounds i8, ptr %30, i64 %36
  store ptr %37, ptr %16, align 8, !tbaa !4
  call void @llvm.lifetime.start.p0(i64 8, ptr %17) #11
  %38 = load ptr, ptr %13, align 8, !tbaa !52
  %39 = getelementptr inbounds ptr, ptr %38, i64 2
  %40 = load ptr, ptr %39, align 8, !tbaa !4
  %41 = load ptr, ptr %14, align 8, !tbaa !54
  %42 = getelementptr inbounds i32, ptr %41, i64 2
  %43 = load i32, ptr %42, align 4, !tbaa !9
  %44 = load i32, ptr %11, align 4, !tbaa !9
  %45 = mul nsw i32 %43, %44
  %46 = sext i32 %45 to i64
  %47 = getelementptr inbounds i8, ptr %40, i64 %46
  store ptr %47, ptr %17, align 8, !tbaa !4
  %48 = load ptr, ptr @uyvytoyuv422, align 8, !tbaa !56
  %49 = load ptr, ptr %15, align 8, !tbaa !4
  %50 = load ptr, ptr %16, align 8, !tbaa !4
  %51 = load ptr, ptr %17, align 8, !tbaa !4
  %52 = load ptr, ptr %9, align 8, !tbaa !52
  %53 = getelementptr inbounds ptr, ptr %52, i64 0
  %54 = load ptr, ptr %53, align 8, !tbaa !4
  %55 = load ptr, ptr %8, align 8, !tbaa !13
  %56 = getelementptr inbounds nuw %struct.SwsInternal, ptr %55, i32 0, i32 0
  %57 = getelementptr inbounds nuw %struct.SwsContext, ptr %56, i32 0, i32 8
  %58 = load i32, ptr %57, align 8, !tbaa !55
  %59 = load i32, ptr %12, align 4, !tbaa !9
  %60 = load ptr, ptr %14, align 8, !tbaa !54
  %61 = getelementptr inbounds i32, ptr %60, i64 0
  %62 = load i32, ptr %61, align 4, !tbaa !9
  %63 = load ptr, ptr %14, align 8, !tbaa !54
  %64 = getelementptr inbounds i32, ptr %63, i64 1
  %65 = load i32, ptr %64, align 4, !tbaa !9
  %66 = load ptr, ptr %10, align 8, !tbaa !54
  %67 = getelementptr inbounds i32, ptr %66, i64 0
  %68 = load i32, ptr %67, align 4, !tbaa !9
  call void %48(ptr noundef %49, ptr noundef %50, ptr noundef %51, ptr noundef %54, i32 noundef %58, i32 noundef %59, i32 noundef %62, i32 noundef %65, i32 noundef %68)
  %69 = load i32, ptr %12, align 4, !tbaa !9
  call void @llvm.lifetime.end.p0(i64 8, ptr %17) #11
  call void @llvm.lifetime.end.p0(i64 8, ptr %16) #11
  call void @llvm.lifetime.end.p0(i64 8, ptr %15) #11
  ret i32 %69
}